target datalayout = "e-m:e-p270:32:32-p271:32:32-p272:64:64-i64:64-i128:128-f80:128-n8:16:32:64-S128"
target triple = "x86_64-pc-linux-gnu"

%struct._zval_struct = type { %union._zend_value, %union.anon.3, %union.anon.6 }
%union._zend_value = type { i64 }
%union.anon.3 = type { i32 }
%union.anon.6 = type { i32 }
%struct._zend_refcounted_h = type { i32, %union.anon }
%union.anon = type { i32 }
%struct._zend_object = type { %struct._zend_refcounted_h, i32, ptr, ptr, ptr, [1 x %struct._zval_struct] }
%struct._zend_execute_data = type { ptr, ptr, ptr, ptr, %struct._zval_struct, ptr, ptr, ptr, ptr }

; Function Attrs: nounwind uwtable
define internal ptr @spl_object_storage_from_obj(ptr noundef %0) #0 {
  %2 = alloca ptr, align 8
  store ptr %0, ptr %2, align 8
  %3 = load ptr, ptr %2, align 8
  %4 = getelementptr inbounds i8, ptr %3, i64 -88
  ret ptr %4
}

; Function Attrs: nounwind uwtable
define hidden void @zim_SplObjectStorage_attach(ptr noundef %0, ptr noundef %1) #0 {
  %3 = alloca ptr, align 8
  %4 = alloca ptr, align 8
  %5 = alloca ptr, align 8
  %6 = alloca ptr, align 8
  %7 = alloca ptr, align 8
  %8 = alloca ptr, align 8
  %9 = alloca ptr, align 8
  %10 = alloca i8, align 1
  %11 = alloca i1, align 1
  %12 = alloca ptr, align 8
  %13 = alloca ptr, align 8
  %14 = alloca ptr, align 8
  %15 = alloca i8, align 1
  %16 = alloca ptr, align 8
  %17 = alloca ptr, align 8
  %18 = alloca ptr, align 8
  %19 = alloca ptr, align 8
  %20 = alloca ptr, align 8
  %21 = alloca i32, align 4
  %22 = alloca i32, align 4
  %23 = alloca i32, align 4
  %24 = alloca i32, align 4
  %25 = alloca i32, align 4
  %26 = alloca ptr, align 8
  %27 = alloca ptr, align 8
  %28 = alloca i32, align 4
  %29 = alloca ptr, align 8
  %30 = alloca i8, align 1
  %31 = alloca i8, align 1
  %32 = alloca i32, align 4
  store ptr %0, ptr %16, align 8
  store ptr %1, ptr %17, align 8
  store ptr null, ptr %19, align 8
  %33 = load ptr, ptr %16, align 8
  %34 = getelementptr inbounds %struct._zend_execute_data, ptr %33, i32 0, i32 4
  %35 = getelementptr inbounds %struct._zval_struct, ptr %34, i32 0, i32 0
  %36 = load ptr, ptr %35, align 8
  %37 = call ptr @spl_object_storage_from_obj(ptr noundef %36)
  store ptr %37, ptr %20, align 8
  br label %38

38:                                               ; preds = %2
  store i32 0, ptr %21, align 4
  store i32 1, ptr %22, align 4
  store i32 2, ptr %23, align 4
  %39 = load ptr, ptr %16, align 8
  %40 = getelementptr inbounds %struct._zend_execute_data, ptr %39, i32 0, i32 4
  %41 = getelementptr inbounds %struct._zval_struct, ptr %40, i32 0, i32 2
  %42 = load i32, ptr %41, align 4
  store i32 %42, ptr %24, align 4
  store i32 0, ptr %25, align 4
  store ptr null, ptr %27, align 8
  store i32 0, ptr %28, align 4
  store ptr null, ptr %29, align 8
  store i8 0, ptr %30, align 1
  store i8 0, ptr %31, align 1
  store i32 0, ptr %32, align 4
  br label %43

43:                                               ; preds = %38
  %44 = load i32, ptr %24, align 4
  %45 = load i32, ptr %22, align 4
  %46 = icmp ult i32 %44, %45
  %47 = xor i1 %46, true
  %48 = xor i1 %47, true
  %49 = zext i1 %48 to i32
  %50 = sext i32 %49 to i64
  %51 = icmp ne i64 %50, 0
  br i1 %51, label %61, label %52

52:                                               ; preds = %43
  %53 = load i32, ptr %24, align 4
  %54 = load i32, ptr %23, align 4
  %55 = icmp ugt i32 %53, %54
  %56 = xor i1 %55, true
  %57 = xor i1 %56, true
  %58 = zext i1 %57 to i32
  %59 = sext i32 %58 to i64
  %60 = icmp ne i64 %59, 0
  br i1 %60, label %61, label %64

61:                                               ; preds = %52, %43
  %62 = load i32, ptr %22, align 4
  %63 = load i32, ptr %23, align 4
  call void @zend_wrong_parameters_count_error(i32 noundef %62, i32 noundef %63)
  store i32 1, ptr %32, align 4
  br label %222

64:                                               ; preds = %52
  %65 = load ptr, ptr %16, align 8
  %66 = getelementptr inbounds %struct._zval_struct, ptr %65, i64 4
  store ptr %66, ptr %26, align 8
  %67 = load i32, ptr %25, align 4
  %68 = add i32 %67, 1
  store i32 %68, ptr %25, align 4
  %69 = load i32, ptr %25, align 4
  %70 = load i32, ptr %22, align 4
  %71 = icmp ule i32 %69, %70
  br i1 %71, label %77, label %72

72:                                               ; preds = %64
  %73 = load i8, ptr %31, align 1
  %74 = trunc i8 %73 to i1
  %75 = zext i1 %74 to i32
  %76 = icmp eq i32 %75, 1
  br label %77

77:                                               ; preds = %72, %64
  %78 = phi i1 [ true, %64 ], [ %76, %72 ]
  call void @llvm.assume(i1 %78)
  %79 = load i32, ptr %25, align 4
  %80 = load i32, ptr %22, align 4
  %81 = icmp ugt i32 %79, %80
  br i1 %81, label %87, label %82

82:                                               ; preds = %77
  %83 = load i8, ptr %31, align 1
  %84 = trunc i8 %83 to i1
  %85 = zext i1 %84 to i32
  %86 = icmp eq i32 %85, 0
  br label %87

87:                                               ; preds = %82, %77
  %88 = phi i1 [ true, %77 ], [ %86, %82 ]
  call void @llvm.assume(i1 %88)
  %89 = load i8, ptr %31, align 1
  %90 = trunc i8 %89 to i1
  br i1 %90, label %91, label %102

91:                                               ; preds = %87
  %92 = load i32, ptr %25, align 4
  %93 = load i32, ptr %24, align 4
  %94 = icmp ugt i32 %92, %93
  %95 = xor i1 %94, true
  %96 = xor i1 %95, true
  %97 = zext i1 %96 to i32
  %98 = sext i32 %97 to i64
  %99 = icmp ne i64 %98, 0
  br i1 %99, label %100, label %101

100:                                              ; preds = %91
  br label %222

101:                                              ; preds = %91
  br label %102

102:                                              ; preds = %101, %87
  %103 = load ptr, ptr %26, align 8
  %104 = getelementptr inbounds %struct._zval_struct, ptr %103, i32 1
  store ptr %104, ptr %26, align 8
  %105 = load ptr, ptr %26, align 8
  store ptr %105, ptr %27, align 8
  %106 = load ptr, ptr %27, align 8
  store ptr %106, ptr %12, align 8
  store ptr %18, ptr %13, align 8
  store ptr null, ptr %14, align 8
  store i8 0, ptr %15, align 1
  %107 = load ptr, ptr %12, align 8
  store ptr %107, ptr %5, align 8
  %108 = load ptr, ptr %5, align 8
  %109 = getelementptr inbounds %struct._zval_struct, ptr %108, i32 0, i32 1
  %110 = load i8, ptr %109, align 8
  %111 = zext i8 %110 to i32
  %112 = icmp eq i32 %111, 8
  br i1 %112, label %113, label %135

113:                                              ; preds = %102
  %114 = load ptr, ptr %14, align 8
  %115 = icmp ne ptr %114, null
  br i1 %115, label %116, label %131

116:                                              ; preds = %113
  %117 = load ptr, ptr %12, align 8
  %118 = load ptr, ptr %117, align 8
  %119 = getelementptr inbounds %struct._zend_object, ptr %118, i32 0, i32 2
  %120 = load ptr, ptr %119, align 8
  %121 = load ptr, ptr %14, align 8
  store ptr %120, ptr %3, align 8
  store ptr %121, ptr %4, align 8
  %122 = load ptr, ptr %3, align 8
  %123 = load ptr, ptr %4, align 8
  %124 = icmp eq ptr %122, %123
  br i1 %124, label %129, label %125

125:                                              ; preds = %116
  %126 = load ptr, ptr %3, align 8
  %127 = load ptr, ptr %4, align 8
  %128 = call zeroext i1 @instanceof_function_slow(ptr noundef %126, ptr noundef %127) #10
  br label %129

129:                                              ; preds = %125, %116
  %130 = phi i1 [ true, %116 ], [ %128, %125 ]
  br i1 %130, label %131, label %135

131:                                              ; preds = %129, %113
  %132 = load ptr, ptr %12, align 8
  %133 = load ptr, ptr %132, align 8
  %134 = load ptr, ptr %13, align 8
  store ptr %133, ptr %134, align 8
  br label %148

135:                                              ; preds = %129, %102
  %136 = load i8, ptr %15, align 1
  %137 = trunc i8 %136 to i1
  br i1 %137, label %138, label %147

138:                                              ; preds = %135
  %139 = load ptr, ptr %12, align 8
  store ptr %139, ptr %6, align 8
  %140 = load ptr, ptr %6, align 8
  %141 = getelementptr inbounds %struct._zval_struct, ptr %140, i32 0, i32 1
  %142 = load i8, ptr %141, align 8
  %143 = zext i8 %142 to i32
  %144 = icmp eq i32 %143, 1
  br i1 %144, label %145, label %147

145:                                              ; preds = %138
  %146 = load ptr, ptr %13, align 8
  store ptr null, ptr %146, align 8
  br label %148

147:                                              ; preds = %138, %135
  store i1 false, ptr %11, align 1
  br label %149

148:                                              ; preds = %145, %131
  store i1 true, ptr %11, align 1
  br label %149

149:                                              ; preds = %148, %147
  %150 = load i1, ptr %11, align 1
  %151 = xor i1 %150, true
  %152 = xor i1 %151, true
  %153 = xor i1 %152, true
  %154 = zext i1 %153 to i32
  %155 = sext i32 %154 to i64
  %156 = icmp ne i64 %155, 0
  br i1 %156, label %157, label %158

157:                                              ; preds = %149
  store i32 18, ptr %28, align 4
  store i32 9, ptr %32, align 4
  br label %222

158:                                              ; preds = %149
  store i8 1, ptr %31, align 1
  %159 = load i32, ptr %25, align 4
  %160 = add i32 %159, 1
  store i32 %160, ptr %25, align 4
  %161 = load i32, ptr %25, align 4
  %162 = load i32, ptr %22, align 4
  %163 = icmp ule i32 %161, %162
  br i1 %163, label %169, label %164

164:                                              ; preds = %158
  %165 = load i8, ptr %31, align 1
  %166 = trunc i8 %165 to i1
  %167 = zext i1 %166 to i32
  %168 = icmp eq i32 %167, 1
  br label %169

169:                                              ; preds = %164, %158
  %170 = phi i1 [ true, %158 ], [ %168, %164 ]
  call void @llvm.assume(i1 %170)
  %171 = load i32, ptr %25, align 4
  %172 = load i32, ptr %22, align 4
  %173 = icmp ugt i32 %171, %172
  br i1 %173, label %179, label %174

174:                                              ; preds = %169
  %175 = load i8, ptr %31, align 1
  %176 = trunc i8 %175 to i1
  %177 = zext i1 %176 to i32
  %178 = icmp eq i32 %177, 0
  br label %179

179:                                              ; preds = %174, %169
  %180 = phi i1 [ true, %169 ], [ %178, %174 ]
  call void @llvm.assume(i1 %180)
  %181 = load i8, ptr %31, align 1
  %182 = trunc i8 %181 to i1
  br i1 %182, label %183, label %194

183:                                              ; preds = %179
  %184 = load i32, ptr %25, align 4
  %185 = load i32, ptr %24, align 4
  %186 = icmp ugt i32 %184, %185
  %187 = xor i1 %186, true
  %188 = xor i1 %187, true
  %189 = zext i1 %188 to i32
  %190 = sext i32 %189 to i64
  %191 = icmp ne i64 %190, 0
  br i1 %191, label %192, label %193

192:                                              ; preds = %183
  br label %222

193:                                              ; preds = %183
  br label %194

194:                                              ; preds = %193, %179
  %195 = load ptr, ptr %26, align 8
  %196 = getelementptr inbounds %struct._zval_struct, ptr %195, i32 1
  store ptr %196, ptr %26, align 8
  %197 = load ptr, ptr %26, align 8
  store ptr %197, ptr %27, align 8
  %198 = load ptr, ptr %27, align 8
  store ptr %198, ptr %8, align 8
  store ptr %19, ptr %9, align 8
  store i8 0, ptr %10, align 1
  %199 = load i8, ptr %10, align 1
  %200 = trunc i8 %199 to i1
  br i1 %200, label %201, label %209

201:                                              ; preds = %194
  %202 = load ptr, ptr %8, align 8
  store ptr %202, ptr %7, align 8
  %203 = load ptr, ptr %7, align 8
  %204 = getelementptr inbounds %struct._zval_struct, ptr %203, i32 0, i32 1
  %205 = load i8, ptr %204, align 8
  %206 = zext i8 %205 to i32
  %207 = icmp eq i32 %206, 1
  br i1 %207, label %208, label %209

208:                                              ; preds = %201
  br label %211

209:                                              ; preds = %201, %194
  %210 = load ptr, ptr %8, align 8
  br label %211

211:                                              ; preds = %209, %208
  %212 = phi ptr [ null, %208 ], [ %210, %209 ]
  %213 = load ptr, ptr %9, align 8
  store ptr %212, ptr %213, align 8
  %214 = load i32, ptr %25, align 4
  %215 = load i32, ptr %23, align 4
  %216 = icmp eq i32 %214, %215
  br i1 %216, label %220, label %217

217:                                              ; preds = %211
  %218 = load i32, ptr %23, align 4
  %219 = icmp eq i32 %218, -1
  br label %220

220:                                              ; preds = %217, %211
  %221 = phi i1 [ true, %211 ], [ %219, %217 ]
  call void @llvm.assume(i1 %221)
  br label %222

222:                                              ; preds = %220, %192, %157, %100, %61
  %223 = load i32, ptr %32, align 4
  %224 = icmp ne i32 %223, 0
  %225 = xor i1 %224, true
  %226 = xor i1 %225, true
  %227 = zext i1 %226 to i32
  %228 = sext i32 %227 to i64
  %229 = icmp ne i64 %228, 0
  br i1 %229, label %230, label %236

230:                                              ; preds = %222
  %231 = load i32, ptr %32, align 4
  %232 = load i32, ptr %25, align 4
  %233 = load ptr, ptr %29, align 8
  %234 = load i32, ptr %28, align 4
  %235 = load ptr, ptr %27, align 8
  call void @zend_wrong_parameter_error(i32 noundef %231, i32 noundef %232, ptr noundef %233, i32 noundef %234, ptr noundef %235)
  br label %242

236:                                              ; preds = %222
  br label %237

237:                                              ; preds = %236
  %238 = load ptr, ptr %20, align 8
  %239 = load ptr, ptr %18, align 8
  %240 = load ptr, ptr %19, align 8
  %241 = call ptr @spl_object_storage_attach(ptr noundef %238, ptr noundef %239, ptr noundef %240)
  br label %242

242:                                              ; preds = %237, %230
  ret void
}