; Function Attrs: nounwind uwtable
define hidden void @zim_SplObjectStorage_attach(ptr noundef %0, ptr nocapture readnone %1) #0 {
  %3 = getelementptr inbounds i8, ptr %0, i64 32
  %4 = load ptr, ptr %3, align 8
  %5 = getelementptr inbounds i8, ptr %4, i64 -88
  %6 = getelementptr inbounds i8, ptr %0, i64 44
  %7 = load i32, ptr %6, align 4
  %8 = add i32 %7, -3
  %or.cond = icmp ult i32 %8, -2
  br i1 %or.cond, label %9, label %10

9:                                                ; preds = %2
  tail call void @zend_wrong_parameters_count_error(i32 noundef 1, i32 noundef 2) #10
  br label %14

10:                                               ; preds = %2
  %11 = getelementptr inbounds i8, ptr %0, i64 80
  %12 = getelementptr inbounds i8, ptr %0, i64 88
  %13 = load i8, ptr %12, align 8
  %.not = icmp eq i8 %13, 8
  br i1 %.not, label %15, label %14

14:                                               ; preds = %9, %10
  %.068.ph = phi ptr [ %11, %10 ], [ null, %9 ]
  %.067.ph = phi i32 [ 18, %10 ], [ 0, %9 ]
  %.066.ph = phi i32 [ 1, %10 ], [ 0, %9 ]
  %.0.ph = phi i32 [ 9, %10 ], [ 1, %9 ]
  tail call void @zend_wrong_parameter_error(i32 noundef %.0.ph, i32 noundef %.066.ph, ptr noundef null, i32 noundef %.067.ph, ptr noundef %.068.ph) #10
  br label %20

15:                                               ; preds = %10
  %16 = load ptr, ptr %11, align 8
  %17 = icmp eq i32 %7, 1
  %18 = getelementptr inbounds i8, ptr %0, i64 96
  %spec.select = select i1 %17, ptr null, ptr %18
  %19 = tail call fastcc ptr @spl_object_storage_attach(ptr noundef nonnull %5, ptr noundef %16, ptr noundef %spec.select)
  br label %20

20:                                               ; preds = %15, %14
  ret void
}